target datalayout = "e-m:e-p270:32:32-p271:32:32-p272:64:64-i64:64-i128:128-f80:128-n8:16:32:64-S128"
target triple = "x86_64-pc-linux-gnu"

%"class.(anonymous namespace)::MarrHildrethHashImpl" = type <{ %"class.cv::img_hash::ImgHashBase::ImgHashImpl", float, [4 x i8], %"class.cv::Mat", %"class.cv::Mat", %"class.cv::Mat", %"class.cv::Mat", %"class.cv::Mat", %"class.cv::Mat", %"class.cv::Mat", float, [4 x i8] }>
%"class.cv::img_hash::ImgHashBase::ImgHashImpl" = type { ptr }
%"class.cv::Mat" = type { i32, i32, i32, i32, ptr, ptr, ptr, ptr, ptr, ptr, %"struct.cv::MatSize", %"struct.cv::MatStep" }
%"struct.cv::MatSize" = type { ptr }
%"struct.cv::MatStep" = type { ptr, [2 x i64] }

; Function Attrs: inlinehint mustprogress nounwind uwtable
define linkonce_odr noundef float @_ZSt3expf(float noundef %0) #6 comdat {
  %2 = alloca float, align 4
  store float %0, ptr %2, align 4, !tbaa !28
  %3 = load float, ptr %2, align 4, !tbaa !28
  %4 = call float @expf(float noundef %3) #3, !tbaa !69
  ret float %4
}

; Function Attrs: inlinehint mustprogress nounwind uwtable
define linkonce_odr hidden noundef ptr @_ZN2cv3Mat3ptrIfEEPT_i(ptr noundef nonnull align 8 dereferenceable(96) %0, i32 noundef %1) #6 comdat align 2 {
  %3 = alloca ptr, align 8
  %4 = alloca i32, align 4
  store ptr %0, ptr %3, align 8, !tbaa !67
  store i32 %1, ptr %4, align 4, !tbaa !69
  %5 = load ptr, ptr %3, align 8
  %6 = getelementptr inbounds nuw %"class.cv::Mat", ptr %5, i32 0, i32 4
  %7 = load ptr, ptr %6, align 8, !tbaa !75
  %8 = getelementptr inbounds nuw %"class.cv::Mat", ptr %5, i32 0, i32 11
  %9 = getelementptr inbounds nuw %"struct.cv::MatStep", ptr %8, i32 0, i32 0
  %10 = load ptr, ptr %9, align 8, !tbaa !76
  %11 = getelementptr inbounds i64, ptr %10, i64 0
  %12 = load i64, ptr %11, align 8, !tbaa !54
  %13 = load i32, ptr %4, align 4, !tbaa !69
  %14 = sext i32 %13 to i64
  %15 = mul i64 %12, %14
  %16 = getelementptr inbounds nuw i8, ptr %7, i64 %15
  ret ptr %16
}

; Function Attrs: inlinehint mustprogress nounwind uwtable
define linkonce_odr noundef float @_ZSt3powff(float noundef %0, float noundef %1) #6 comdat {
  %3 = alloca float, align 4
  %4 = alloca float, align 4
  store float %0, ptr %3, align 4, !tbaa !28
  store float %1, ptr %4, align 4, !tbaa !28
  %5 = load float, ptr %3, align 4, !tbaa !28
  %6 = load float, ptr %4, align 4, !tbaa !28
  %7 = call float @powf(float noundef %5, float noundef %6) #3, !tbaa !69
  ret float %7
}

; Function Attrs: mustprogress nounwind uwtable
define linkonce_odr hidden void @_ZN2cv8img_hash11ImgHashBase11ImgHashImplD2Ev(ptr noundef nonnull align 8 dereferenceable(8) %0) unnamed_addr #7 comdat align 2 {
  %2 = alloca ptr, align 8
  store ptr %0, ptr %2, align 8, !tbaa !8
  ret void
}

; Function Attrs: mustprogress uwtable
define internal void @_ZN12_GLOBAL__N_111getMHKernelEffRN2cv3MatE(float noundef %0, float noundef %1, ptr noundef nonnull align 8 dereferenceable(96) %2) #4 {
  %4 = alloca float, align 4
  %5 = alloca float, align 4
  %6 = alloca ptr, align 8
  %7 = alloca i32, align 4
  %8 = alloca float, align 4
  %9 = alloca i32, align 4
  %10 = alloca i32, align 4
  %11 = alloca float, align 4
  %12 = alloca float, align 4
  %13 = alloca float, align 4
  %14 = alloca ptr, align 8
  %15 = alloca i32, align 4
  %16 = alloca float, align 4
  %17 = alloca float, align 4
  store float %0, ptr %4, align 4, !tbaa !28
  store float %1, ptr %5, align 4, !tbaa !28
  store ptr %2, ptr %6, align 8, !tbaa !67
  call void @llvm.lifetime.start.p0(i64 4, ptr %7) #3
  %18 = load float, ptr %4, align 4, !tbaa !28
  %19 = load float, ptr %5, align 4, !tbaa !28
  %20 = call noundef float @_ZSt3powff(float noundef %18, float noundef %19)
  %21 = fmul float 4.000000e+00, %20
  %22 = fptosi float %21 to i32
  store i32 %22, ptr %7, align 4, !tbaa !69
  call void @llvm.lifetime.start.p0(i64 4, ptr %8) #3
  %23 = load float, ptr %4, align 4, !tbaa !28
  %24 = load float, ptr %5, align 4, !tbaa !28
  %25 = fneg float %24
  %26 = call noundef float @_ZSt3powff(float noundef %23, float noundef %25)
  store float %26, ptr %8, align 4, !tbaa !28
  %27 = load ptr, ptr %6, align 8, !tbaa !67
  %28 = load i32, ptr %7, align 4, !tbaa !69
  %29 = mul nsw i32 2, %28
  %30 = add nsw i32 %29, 1
  %31 = load i32, ptr %7, align 4, !tbaa !69
  %32 = mul nsw i32 2, %31
  %33 = add nsw i32 %32, 1
  call void @_ZN2cv3Mat6createEiii(ptr noundef nonnull align 8 dereferenceable(96) %27, i32 noundef %30, i32 noundef %33, i32 noundef 5)
  call void @llvm.lifetime.start.p0(i64 4, ptr %9) #3
  store i32 0, ptr %9, align 4, !tbaa !69
  br label %34

34:                                               ; preds = %87, %3
  %35 = load i32, ptr %9, align 4, !tbaa !69
  %36 = load ptr, ptr %6, align 8, !tbaa !67
  %37 = getelementptr inbounds nuw %"class.cv::Mat", ptr %36, i32 0, i32 2
  %38 = load i32, ptr %37, align 8, !tbaa !70
  %39 = icmp ne i32 %35, %38
  br i1 %39, label %41, label %40

40:                                               ; preds = %34
  store i32 2, ptr %10, align 4
  call void @llvm.lifetime.end.p0(i64 4, ptr %9) #3
  br label %90

41:                                               ; preds = %34
  call void @llvm.lifetime.start.p0(i64 4, ptr %11) #3
  %42 = load i32, ptr %9, align 4, !tbaa !69
  %43 = load i32, ptr %7, align 4, !tbaa !69
  %44 = sub nsw i32 %42, %43
  %45 = sitofp i32 %44 to float
  store float %45, ptr %11, align 4, !tbaa !28
  call void @llvm.lifetime.start.p0(i64 4, ptr %12) #3
  %46 = load float, ptr %8, align 4, !tbaa !28
  %47 = load float, ptr %11, align 4, !tbaa !28
  %48 = fmul float %46, %47
  store float %48, ptr %12, align 4, !tbaa !28
  call void @llvm.lifetime.start.p0(i64 4, ptr %13) #3
  %49 = load float, ptr %12, align 4, !tbaa !28
  %50 = load float, ptr %12, align 4, !tbaa !28
  %51 = fmul float %49, %50
  store float %51, ptr %13, align 4, !tbaa !28
  call void @llvm.lifetime.start.p0(i64 8, ptr %14) #3
  %52 = load ptr, ptr %6, align 8, !tbaa !67
  %53 = load i32, ptr %9, align 4, !tbaa !69
  %54 = call noundef ptr @_ZN2cv3Mat3ptrIfEEPT_i(ptr noundef nonnull align 8 dereferenceable(96) %52, i32 noundef %53)
  store ptr %54, ptr %14, align 8, !tbaa !33
  call void @llvm.lifetime.start.p0(i64 4, ptr %15) #3
  store i32 0, ptr %15, align 4, !tbaa !69
  br label %55

55:                                               ; preds = %83, %41
  %56 = load i32, ptr %15, align 4, !tbaa !69
  %57 = load ptr, ptr %6, align 8, !tbaa !67
  %58 = getelementptr inbounds nuw %"class.cv::Mat", ptr %57, i32 0, i32 3
  %59 = load i32, ptr %58, align 4, !tbaa !71
  %60 = icmp ne i32 %56, %59
  br i1 %60, label %62, label %61

61:                                               ; preds = %55
  store i32 5, ptr %10, align 4
  call void @llvm.lifetime.end.p0(i64 4, ptr %15) #3
  br label %86

62:                                               ; preds = %55
  call void @llvm.lifetime.start.p0(i64 4, ptr %16) #3
  %63 = load float, ptr %8, align 4, !tbaa !28
  %64 = load i32, ptr %15, align 4, !tbaa !69
  %65 = load i32, ptr %7, align 4, !tbaa !69
  %66 = sub nsw i32 %64, %65
  %67 = sitofp i32 %66 to float
  %68 = fmul float %63, %67
  store float %68, ptr %16, align 4, !tbaa !28
  call void @llvm.lifetime.start.p0(i64 4, ptr %17) #3
  %69 = load float, ptr %16, align 4, !tbaa !28
  %70 = load float, ptr %16, align 4, !tbaa !28
  %71 = load float, ptr %13, align 4, !tbaa !28
  %72 = call float @llvm.fmuladd.f32(float %69, float %70, float %71)
  store float %72, ptr %17, align 4, !tbaa !28
  %73 = load float, ptr %17, align 4, !tbaa !28
  %74 = fsub float 2.000000e+00, %73
  %75 = load float, ptr %17, align 4, !tbaa !28
  %76 = fdiv float %75, 2.000000e+00
  %77 = call noundef float @_ZSt3expf(float noundef %76)
  %78 = fmul float %74, %77
  %79 = load ptr, ptr %14, align 8, !tbaa !33
  %80 = load i32, ptr %15, align 4, !tbaa !69
  %81 = sext i32 %80 to i64
  %82 = getelementptr inbounds float, ptr %79, i64 %81
  store float %78, ptr %82, align 4, !tbaa !28
  call void @llvm.lifetime.end.p0(i64 4, ptr %17) #3
  call void @llvm.lifetime.end.p0(i64 4, ptr %16) #3
  br label %83

83:                                               ; preds = %62
  %84 = load i32, ptr %15, align 4, !tbaa !69
  %85 = add nsw i32 %84, 1
  store i32 %85, ptr %15, align 4, !tbaa !69
  br label %55, !llvm.loop !72

86:                                               ; preds = %61
  call void @llvm.lifetime.end.p0(i64 8, ptr %14) #3
  call void @llvm.lifetime.end.p0(i64 4, ptr %13) #3
  call void @llvm.lifetime.end.p0(i64 4, ptr %12) #3
  call void @llvm.lifetime.end.p0(i64 4, ptr %11) #3
  br label %87

87:                                               ; preds = %86
  %88 = load i32, ptr %9, align 4, !tbaa !69
  %89 = add nsw i32 %88, 1
  store i32 %89, ptr %9, align 4, !tbaa !69
  br label %34, !llvm.loop !74

90:                                               ; preds = %40
  call void @llvm.lifetime.end.p0(i64 4, ptr %8) #3
  call void @llvm.lifetime.end.p0(i64 4, ptr %7) #3
  ret void
}

; Function Attrs: inlinehint mustprogress nounwind uwtable
define linkonce_odr hidden void @_ZN2cv8img_hash11ImgHashBase11ImgHashImplC2Ev(ptr noundef nonnull align 8 dereferenceable(8) %0) unnamed_addr #6 comdat align 2 {
  %2 = alloca ptr, align 8
  store ptr %0, ptr %2, align 8, !tbaa !8
  %3 = load ptr, ptr %2, align 8
  store ptr getelementptr inbounds inrange(-16, 32) ({ [6 x ptr] }, ptr @_ZTVN2cv8img_hash11ImgHashBase11ImgHashImplE, i32 0, i32 0, i32 2), ptr %3, align 8, !tbaa !29
  ret void
}

; Function Attrs: mustprogress uwtable
define internal void @_ZN12_GLOBAL__N_120MarrHildrethHashImplC2Eff(ptr noundef nonnull align 8 dereferenceable(696) %0, float noundef %1, float noundef %2) unnamed_addr #4 align 2 personality ptr @__gxx_personality_v0 {
  %4 = alloca ptr, align 8
  %5 = alloca float, align 4
  %6 = alloca float, align 4
  %7 = alloca ptr, align 8
  %8 = alloca i32, align 4
  store ptr %0, ptr %4, align 8, !tbaa !10
  store float %1, ptr %5, align 4, !tbaa !28
  store float %2, ptr %6, align 4, !tbaa !28
  %9 = load ptr, ptr %4, align 8
  call void @_ZN2cv8img_hash11ImgHashBase11ImgHashImplC2Ev(ptr noundef nonnull align 8 dereferenceable(8) %9) #3
  store ptr getelementptr inbounds inrange(-16, 32) ({ [6 x ptr] }, ptr @_ZTVN12_GLOBAL__N_120MarrHildrethHashImplE, i32 0, i32 0, i32 2), ptr %9, align 8, !tbaa !29
  %10 = getelementptr inbounds nuw %"class.(anonymous namespace)::MarrHildrethHashImpl", ptr %9, i32 0, i32 1
  %11 = load float, ptr %5, align 4, !tbaa !28
  store float %11, ptr %10, align 8, !tbaa !14
  %12 = getelementptr inbounds nuw %"class.(anonymous namespace)::MarrHildrethHashImpl", ptr %9, i32 0, i32 3
  call void @_ZN2cv3MatC1Ev(ptr noundef nonnull align 8 dereferenceable(96) %12) #3
  %13 = getelementptr inbounds nuw %"class.(anonymous namespace)::MarrHildrethHashImpl", ptr %9, i32 0, i32 4
  call void @_ZN2cv3MatC1Ev(ptr noundef nonnull align 8 dereferenceable(96) %13) #3
  %14 = getelementptr inbounds nuw %"class.(anonymous namespace)::MarrHildrethHashImpl", ptr %9, i32 0, i32 5
  call void @_ZN2cv3MatC1Ev(ptr noundef nonnull align 8 dereferenceable(96) %14) #3
  %15 = getelementptr inbounds nuw %"class.(anonymous namespace)::MarrHildrethHashImpl", ptr %9, i32 0, i32 6
  call void @_ZN2cv3MatC1Ev(ptr noundef nonnull align 8 dereferenceable(96) %15) #3
  %16 = getelementptr inbounds nuw %"class.(anonymous namespace)::MarrHildrethHashImpl", ptr %9, i32 0, i32 7
  call void @_ZN2cv3MatC1Ev(ptr noundef nonnull align 8 dereferenceable(96) %16) #3
  %17 = getelementptr inbounds nuw %"class.(anonymous namespace)::MarrHildrethHashImpl", ptr %9, i32 0, i32 8
  call void @_ZN2cv3MatC1Ev(ptr noundef nonnull align 8 dereferenceable(96) %17) #3
  %18 = getelementptr inbounds nuw %"class.(anonymous namespace)::MarrHildrethHashImpl", ptr %9, i32 0, i32 9
  call void @_ZN2cv3MatC1Ev(ptr noundef nonnull align 8 dereferenceable(96) %18) #3
  %19 = getelementptr inbounds nuw %"class.(anonymous namespace)::MarrHildrethHashImpl", ptr %9, i32 0, i32 10
  %20 = load float, ptr %6, align 4, !tbaa !28
  store float %20, ptr %19, align 8, !tbaa !27
  %21 = getelementptr inbounds nuw %"class.(anonymous namespace)::MarrHildrethHashImpl", ptr %9, i32 0, i32 1
  %22 = load float, ptr %21, align 8, !tbaa !14
  %23 = getelementptr inbounds nuw %"class.(anonymous namespace)::MarrHildrethHashImpl", ptr %9, i32 0, i32 10
  %24 = load float, ptr %23, align 8, !tbaa !27
  %25 = getelementptr inbounds nuw %"class.(anonymous namespace)::MarrHildrethHashImpl", ptr %9, i32 0, i32 8
  invoke void @_ZN12_GLOBAL__N_111getMHKernelEffRN2cv3MatE(float noundef %22, float noundef %24, ptr noundef nonnull align 8 dereferenceable(96) %25)
          to label %26 unwind label %29

26:                                               ; preds = %3
  %27 = getelementptr inbounds nuw %"class.(anonymous namespace)::MarrHildrethHashImpl", ptr %9, i32 0, i32 3
  invoke void @_ZN2cv3Mat6createEiii(ptr noundef nonnull align 8 dereferenceable(96) %27, i32 noundef 31, i32 noundef 31, i32 noundef 5)
          to label %28 unwind label %29

28:                                               ; preds = %26
  ret void

29:                                               ; preds = %26, %3
  %30 = landingpad { ptr, i32 }
          cleanup
  %31 = extractvalue { ptr, i32 } %30, 0
  store ptr %31, ptr %7, align 8
  %32 = extractvalue { ptr, i32 } %30, 1
  store i32 %32, ptr %8, align 4
  call void @_ZN2cv3MatD1Ev(ptr noundef nonnull align 8 dereferenceable(96) %18) #3
  call void @_ZN2cv3MatD1Ev(ptr noundef nonnull align 8 dereferenceable(96) %17) #3
  call void @_ZN2cv3MatD1Ev(ptr noundef nonnull align 8 dereferenceable(96) %16) #3
  call void @_ZN2cv3MatD1Ev(ptr noundef nonnull align 8 dereferenceable(96) %15) #3
  call void @_ZN2cv3MatD1Ev(ptr noundef nonnull align 8 dereferenceable(96) %14) #3
  call void @_ZN2cv3MatD1Ev(ptr noundef nonnull align 8 dereferenceable(96) %13) #3
  call void @_ZN2cv3MatD1Ev(ptr noundef nonnull align 8 dereferenceable(96) %12) #3
  call void @_ZN2cv8img_hash11ImgHashBase11ImgHashImplD2Ev(ptr noundef nonnull align 8 dereferenceable(8) %9) #3
  br label %33

33:                                               ; preds = %29
  %34 = load ptr, ptr %7, align 8
  %35 = load i32, ptr %8, align 4
  %36 = insertvalue { ptr, i32 } poison, ptr %34, 0
  %37 = insertvalue { ptr, i32 } %36, i32 %35, 1
  resume { ptr, i32 } %37
}