; Function Attrs: mustprogress uwtable
define internal fastcc void @_ZN12_GLOBAL__N_120MarrHildrethHashImplC2Eff(ptr noundef nonnull align 8 dereferenceable(696) initializes((0, 12)) %0, float noundef %1, float noundef %2) unnamed_addr #3 align 2 personality ptr @__gxx_personality_v0 {
  store ptr getelementptr inbounds nuw inrange(-16, 32) (i8, ptr @_ZTVN12_GLOBAL__N_120MarrHildrethHashImplE, i64 16), ptr %0, align 8, !tbaa !41
  %4 = getelementptr inbounds nuw i8, ptr %0, i64 8
  store float %1, ptr %4, align 8, !tbaa !17
  %5 = getelementptr inbounds nuw i8, ptr %0, i64 16
  tail call void @_ZN2cv3MatC1Ev(ptr noundef nonnull align 8 dereferenceable(96) %5) #19
  %6 = getelementptr inbounds nuw i8, ptr %0, i64 112
  tail call void @_ZN2cv3MatC1Ev(ptr noundef nonnull align 8 dereferenceable(96) %6) #19
  %7 = getelementptr inbounds nuw i8, ptr %0, i64 208
  tail call void @_ZN2cv3MatC1Ev(ptr noundef nonnull align 8 dereferenceable(96) %7) #19
  %8 = getelementptr inbounds nuw i8, ptr %0, i64 304
  tail call void @_ZN2cv3MatC1Ev(ptr noundef nonnull align 8 dereferenceable(96) %8) #19
  %9 = getelementptr inbounds nuw i8, ptr %0, i64 400
  tail call void @_ZN2cv3MatC1Ev(ptr noundef nonnull align 8 dereferenceable(96) %9) #19
  %10 = getelementptr inbounds nuw i8, ptr %0, i64 496
  tail call void @_ZN2cv3MatC1Ev(ptr noundef nonnull align 8 dereferenceable(96) %10) #19
  %11 = getelementptr inbounds nuw i8, ptr %0, i64 592
  tail call void @_ZN2cv3MatC1Ev(ptr noundef nonnull align 8 dereferenceable(96) %11) #19
  %12 = getelementptr inbounds nuw i8, ptr %0, i64 688
  store float %2, ptr %12, align 8, !tbaa !29
  %13 = load float, ptr %4, align 8, !tbaa !17
  %14 = tail call noundef float @powf(float noundef %13, float noundef %2) #19, !tbaa !30
  %15 = fmul float %14, 4.000000e+00
  %16 = fptosi float %15 to i32
  %17 = fneg float %2
  %18 = tail call noundef float @powf(float noundef %13, float noundef %17) #19, !tbaa !30
  %19 = shl nsw i32 %16, 1
  %20 = or disjoint i32 %19, 1
  invoke void @_ZN2cv3Mat6createEiii(ptr noundef nonnull align 8 dereferenceable(96) %10, i32 noundef %20, i32 noundef %20, i32 noundef 5)
          to label %.noexc unwind label %56

.noexc:                                           ; preds = %3
  %21 = getelementptr inbounds nuw i8, ptr %0, i64 504
  %22 = load i32, ptr %21, align 8, !tbaa !31
  %.not34.i = icmp eq i32 %22, 0
  br i1 %.not34.i, label %_ZN12_GLOBAL__N_111getMHKernelEffRN2cv3MatE.exit, label %.lr.ph37.i

.lr.ph37.i:                                       ; preds = %.noexc
  %23 = getelementptr inbounds nuw i8, ptr %0, i64 512
  %24 = load ptr, ptr %23, align 8, !tbaa !32
  %25 = getelementptr inbounds nuw i8, ptr %0, i64 568
  %26 = load ptr, ptr %25, align 8, !tbaa !33
  %27 = load i64, ptr %26, align 8, !tbaa !34
  %28 = getelementptr inbounds nuw i8, ptr %0, i64 508
  %29 = load i32, ptr %28, align 4, !tbaa !35
  %30 = icmp eq i32 %29, 0
  br i1 %30, label %_ZN12_GLOBAL__N_111getMHKernelEffRN2cv3MatE.exit, label %.lr.ph37.split.i

.lr.ph37.split.i:                                 ; preds = %.lr.ph37.i, %._crit_edge.i
  %31 = phi i32 [ %40, %._crit_edge.i ], [ %22, %.lr.ph37.i ]
  %32 = phi i32 [ %41, %._crit_edge.i ], [ 1, %.lr.ph37.i ]
  %indvars.iv41.i = phi i64 [ %indvars.iv.next42.i, %._crit_edge.i ], [ 0, %.lr.ph37.i ]
  %33 = trunc i64 %indvars.iv41.i to i32
  %34 = sub i32 %33, %16
  %35 = sitofp i32 %34 to float
  %36 = fmul float %18, %35
  %37 = fmul float %36, %36
  %38 = mul i64 %indvars.iv41.i, %27
  %39 = getelementptr inbounds nuw i8, ptr %24, i64 %38
  %.not3132.i = icmp eq i32 %32, 0
  br i1 %.not3132.i, label %._crit_edge.i, label %.lr.ph.i

._crit_edge.loopexit.i:                           ; preds = %.lr.ph.i
  %.pre.i = load i32, ptr %21, align 8, !tbaa !31
  br label %._crit_edge.i

._crit_edge.i:                                    ; preds = %._crit_edge.loopexit.i, %.lr.ph37.split.i
  %40 = phi i32 [ %.pre.i, %._crit_edge.loopexit.i ], [ %31, %.lr.ph37.split.i ]
  %41 = phi i32 [ %53, %._crit_edge.loopexit.i ], [ 0, %.lr.ph37.split.i ]
  %indvars.iv.next42.i = add nuw nsw i64 %indvars.iv41.i, 1
  %42 = zext i32 %40 to i64
  %.not.i = icmp eq i64 %indvars.iv.next42.i, %42
  br i1 %.not.i, label %_ZN12_GLOBAL__N_111getMHKernelEffRN2cv3MatE.exit, label %.lr.ph37.split.i, !llvm.loop !36

.lr.ph.i:                                         ; preds = %.lr.ph37.split.i, %.lr.ph.i
  %indvars.iv.i = phi i64 [ %indvars.iv.next.i, %.lr.ph.i ], [ 0, %.lr.ph37.split.i ]
  %43 = trunc i64 %indvars.iv.i to i32
  %44 = sub i32 %43, %16
  %45 = sitofp i32 %44 to float
  %46 = fmul float %18, %45
  %47 = tail call float @llvm.fmuladd.f32(float %46, float %46, float %37)
  %48 = fsub float 2.000000e+00, %47
  %49 = fmul float %47, 5.000000e-01
  %50 = tail call noundef float @expf(float noundef %49) #19, !tbaa !30
  %51 = fmul float %50, %48
  %52 = getelementptr inbounds nuw float, ptr %39, i64 %indvars.iv.i
  store float %51, ptr %52, align 4, !tbaa !39
  %indvars.iv.next.i = add nuw nsw i64 %indvars.iv.i, 1
  %53 = load i32, ptr %28, align 4, !tbaa !35
  %54 = zext i32 %53 to i64
  %.not31.i = icmp eq i64 %indvars.iv.next.i, %54
  br i1 %.not31.i, label %._crit_edge.loopexit.i, label %.lr.ph.i, !llvm.loop !40

_ZN12_GLOBAL__N_111getMHKernelEffRN2cv3MatE.exit: ; preds = %._crit_edge.i, %.lr.ph37.i, %.noexc
  invoke void @_ZN2cv3Mat6createEiii(ptr noundef nonnull align 8 dereferenceable(96) %5, i32 noundef 31, i32 noundef 31, i32 noundef 5)
          to label %55 unwind label %56

55:                                               ; preds = %_ZN12_GLOBAL__N_111getMHKernelEffRN2cv3MatE.exit
  ret void

56:                                               ; preds = %3, %_ZN12_GLOBAL__N_111getMHKernelEffRN2cv3MatE.exit
  %57 = landingpad { ptr, i32 }
          cleanup
  tail call void @_ZN2cv3MatD1Ev(ptr noundef nonnull align 8 dereferenceable(96) %11) #19
  tail call void @_ZN2cv3MatD1Ev(ptr noundef nonnull align 8 dereferenceable(96) %10) #19
  tail call void @_ZN2cv3MatD1Ev(ptr noundef nonnull align 8 dereferenceable(96) %9) #19
  tail call void @_ZN2cv3MatD1Ev(ptr noundef nonnull align 8 dereferenceable(96) %8) #19
  tail call void @_ZN2cv3MatD1Ev(ptr noundef nonnull align 8 dereferenceable(96) %7) #19
  tail call void @_ZN2cv3MatD1Ev(ptr noundef nonnull align 8 dereferenceable(96) %6) #19
  tail call void @_ZN2cv3MatD1Ev(ptr noundef nonnull align 8 dereferenceable(96) %5) #19
  resume { ptr, i32 } %57
}